(dp1
I1
(dp2
I0
(lp3
(dp4
I2
F0.54379743197706443
sI5
F0.49711132752918019
sI6
F0.49224876725251843
sI7
F0.49329534118201562
sI9
F0.51357348792423962
sI11
F0.54979893850331241
sI12
F0.57235011311239881
sI14
F0.62574489068304195
sI16
F0.68795139519757953
sI20
F0.79806564004454472
sI25
F0.85067526759520851
sI26
F0.84156795360650316
sI27
F0.82751143324518428
sI28
F0.81063250186963065
sI29
F0.79270070436528517
sI32
F0.74533546287374286
sI36
F0.68864189472020931
sI37
F0.67601477802739074
sI38
F0.66587394693766921
sI39
F0.65719495450083709
sI40
F0.65028340905266802
sI43
F0.63907734525251469
sI45
F0.63239162565644802
sI48
F0.61977358282536443
sI49
F0.6148908713858664
sI53
F0.59152981676724559
sI55
F0.58215574222125077
sI57
F0.5729163242913824
sI58
F0.56599736713788962
sI61
F0.54616092868376087
sI63
F0.53486462598012419
sI69
F0.51813016859251049
sI72
F0.51455053558362218
sI73
F0.51368628173217967
sI74
F0.51424200661538066
sI79
F0.54717890132121239
sI82
F0.6000475619463902
sI83
F0.62318212495926495
sI86
F0.70585668512975674
sI88
F0.78150998238400726
sI89
F0.82798962357391304
sa(dp5
I2
F4.4231580669497034e-05
sI5
F4.0402522157969597e-05
sI6
F3.9996871034059612e-05
sI7
F4.0071443442083817e-05
sI9
F4.1696907152369955e-05
sI11
F4.4614757351019467e-05
sI12
F4.6432615909154331e-05
sI14
F5.0737873324667885e-05
sI16
F5.5752762411825368e-05
sI20
F6.460929102580902e-05
sI25
F6.8778941823981757e-05
sI26
F6.8024917726881181e-05
sI27
F6.6871339125099588e-05
sI28
F6.5490339343106686e-05
sI29
F6.402501847650491e-05
sI32
F6.0152564822323857e-05
sI36
F5.5519482385370087e-05
sI37
F5.4487343182293342e-05
sI38
F5.3656083375130329e-05
sI39
F5.2943018420920182e-05
sI40
F5.237266968176575e-05
sI43
F5.1430212599718795e-05
sI45
F5.0865860004460761e-05
sI48
F4.9812304755343442e-05
sI49
F4.9407109159075804e-05
sI53
F4.7480973981968644e-05
sI55
F4.6704435540934182e-05
sI57
F4.593949514268975e-05
sI58
F4.5373002079161598e-05
sI61
F4.3749002356509421e-05
sI63
F4.2822086729639195e-05
sI69
F4.1418350163079646e-05
sI72
F4.1100520268915951e-05
sI73
F4.102095495939243e-05
sI74
F4.1054795272355053e-05
sI79
F4.3628353648568264e-05
sI82
F4.7806988172540908e-05
sI83
F4.9637453775529948e-05
sI86
F5.617946623802046e-05
sI88
F6.216893971747173e-05
sI89
F6.5849547495231727e-05
sa(dp6
I2
F0.86186084801828478
sI5
F0.78786835889630458
sI6
F0.78016172021589159
sI7
F0.7818204281121589
sI9
F0.81395912483963717
sI11
F0.87137259485624619
sI12
F0.90711379797618918
sI14
F0.99173881746087678
sI16
F1.090329482992769
sI20
F1.2648488000437204
sI25
F1.3482294406066819
sI26
F1.3337953206643771
sI27
F1.3115172372340318
sI28
F1.2847659338008985
sI29
F1.2563459500076701
sI32
F1.181277101208448
sI36
F1.0914238509855825
sI37
F1.0714112196987222
sI38
F1.0553390855387246
sI39
F1.041583809508168
sI40
F1.0306297481779791
sI43
F1.0128693339468313
sI45
F1.0022731824723212
sI48
F0.98227493228715412
sI49
F0.9745363561659417
sI53
F0.93751157973217736
sI55
F0.92265467279860713
sI57
F0.90801118221925559
sI58
F0.89704537412775476
sI61
F0.86560673785913234
sI63
F0.84770330460415844
sI69
F0.8211809770109989
sI72
F0.81550764102370266
sI73
F0.81413789097799316
sI74
F0.81501865556225972
sI79
F0.86722011576234093
sI82
F0.95101129608172219
sI83
F0.98767710751138993
sI86
F1.1187074551153191
sI88
F1.2386098509208179
sI89
F1.3122751178307346
sasI1
(lp7
(dp8
I2
F0.3126831672349189
sI5
F0.27457858541832036
sI6
F0.27464138323802539
sI7
F0.28161226653187882
sI9
F0.31523188614455816
sI11
F0.37029072403981245
sI12
F0.40556762813321756
sI14
F0.49518935020619909
sI16
F0.60537055456243327
sI20
F0.82581462230823099
sI25
F0.94071975596633894
sI26
F0.92231802906762639
sI27
F0.89541421893214079
sI28
F0.86450184202310187
sI29
F0.83391472283305379
sI32
F0.75592379853293168
sI36
F0.66676423591913425
sI37
F0.64977306593736861
sI38
F0.63663249909097619
sI39
F0.62659477590889223
sI40
F0.62125141042212628
sI43
F0.61448793558436898
sI45
F0.61016176047100101
sI48
F0.59927761178087613
sI49
F0.59328407257133364
sI53
F0.56711629953481801
sI55
F0.55831894883371214
sI57
F0.54672453306421653
sI58
F0.53797500743673377
sI61
F0.51257527650867529
sI63
F0.50058666578793343
sI69
F0.495521782392643
sI72
F0.50017442770173681
sI73
F0.50372028682426362
sI74
F0.51060635220570183
sI79
F0.61314905047885748
sI82
F0.76384257644917586
sI83
F0.83155478969090491
sI86
F1.0977181214313743
sI88
F1.3835846692161744
sI89
F1.5974953929906561
sa(dp9
I2
F0.00031874190214178038
sI5
F0.00030269050887071731
sI6
F0.00041172604836981435
sI7
F0.00053737408324341387
sI9
F0.00049781671143169382
sI11
F0.00032758376445994017
sI12
F0.00044874119662556609
sI14
F0.0003501150163916759
sI16
F0.00059309205380967604
sI20
F0.00085293769107983063
sI25
F0.00030452101016686234
sI26
F0.00037358712786369678
sI27
F0.00043906215736763503
sI28
F0.00035880236054483696
sI29
F0.00034141735514954747
sI32
F0.00074085663755680479
sI36
F0.000378844088911558
sI37
F0.00053057787090106813
sI38
F0.00050897769118572094
sI39
F0.00049676638328498182
sI40
F0.00028183145597688794
sI43
F0.00055941257238873809
sI45
F0.00056389956423539742
sI48
F0.00052754972807224137
sI49
F0.00035550593521043632
sI53
F0.00048415135875426885
sI55
F0.00060800151529498555
sI57
F0.00039366305876877185
sI58
F0.00055928272522231886
sI61
F0.00052358429897353973
sI63
F0.00054259610715994878
sI69
F0.00049008958880916893
sI72
F0.00055349817577003235
sI73
F0.00035777981146519334
sI74
F0.00046097571064759559
sI79
F0.00040103495096744171
sI82
F0.00041439021421253535
sI83
F0.00047254306949387698
sI86
F0.00030510083239225288
sI88
F0.00076360778835949349
sI89
F0.00036904207373424032
sa(dp10
I2
F0.83174016486085978
sI5
F0.78016172021589159
sI6
F0.7818204281121589
sI7
F0.7936446023042566
sI9
F0.83989719112503458
sI11
F0.90711379797618918
sI12
F0.94686739634147976
sI14
F1.0408703547336409
sI16
F1.1392744263165238
sI20
F1.2981189587774713
sI25
F1.3337953206643771
sI26
F1.3115172372340318
sI27
F1.2847659338008985
sI28
F1.2563459500076701
sI29
F1.2296310029568549
sI32
F1.1579357434812843
sI36
F1.0714112196987222
sI37
F1.0553390855387246
sI38
F1.041583809508168
sI39
F1.0306297481779791
sI40
F1.0246824034985145
sI43
F1.0074844008505253
sI45
F0.99536392726600931
sI48
F0.9745363561659417
sI49
F0.96493455506597936
sI53
F0.92953712760501439
sI55
F0.91557487577911467
sI57
F0.89704537412775476
sI58
F0.88660568166466547
sI61
F0.85539663241615504
sI63
F0.83998782767808833
sI69
F0.81964157594999976
sI72
F0.81413789097799316
sI73
F0.81501865556225972
sI74
F0.81897002113872441
sI79
F0.88956556150867838
sI82
F0.98767710751138993
sI83
F1.0274513398939358
sI86
F1.1704034374621732
sI88
F1.3122751178307346
sI89
F1.4192769000166185
sasI2
(lp11
(dp12
I2
F0.26439774234735042
sI5
F0.21258117530268372
sI6
F0.21066108703291997
sI7
F0.21658151775327614
sI9
F0.25266983633678841
sI11
F0.31807150659255901
sI12
F0.36285373676091237
sI14
F0.48487725323988273
sI16
F0.65237668875182642
sI20
F1.0345500548938988
sI25
F1.2594774924431433
sI26
F1.2222585270419617
sI27
F1.1673952134777172
sI28
F1.1046799388625976
sI29
F1.0425668515709816
sI32
F0.88998279529858526
sI36
F0.72681008326764773
sI37
F0.69566260543667302
sI38
F0.67171807087939039
sI39
F0.6528486615917356
sI40
F0.64080633470484627
sI43
F0.62387623101451606
sI45
F0.61363782174807613
sI48
F0.59158249690453213
sI49
F0.58135190221482613
sI53
F0.53570120213982442
sI55
F0.51956807173862773
sI57
F0.50121868353429366
sI58
F0.48749158790237629
sI61
F0.44888756619993636
sI63
F0.42976164978558695
sI69
F0.41337006746326121
sI72
F0.4150035570320933
sI73
F0.41745639459419331
sI74
F0.42383690067399776
sI79
F0.54293166741648591
sI82
F0.74284945809930003
sI83
F0.84030588577897691
sI86
F1.258343075497788
sI88
F1.7578082782299949
sI89
F2.1513711628025911
sa(dp13
I2
F0.00065407360435949899
sI5
F0.00058455842061733035
sI6
F0.00076647281123136087
sI7
F0.00092408576765896856
sI9
F0.00090359156935655878
sI11
F0.00066679075560213262
sI12
F0.00089384344749154096
sI14
F0.00073540530040640414
sI16
F0.0012730147262753106
sI20
F0.0018795105307987997
sI25
F0.00058985128983772746
sI26
F0.00078639540200337401
sI27
F0.0010483854082836783
sI28
F0.00075045641703574788
sI29
F0.0006752403794909864
sI32
F0.0016143111314835873
sI36
F0.00078571702496743417
sI37
F0.0011647697448489921
sI38
F0.001113794248797284
sI39
F0.0012447354962349705
sI40
F0.00051577468895375547
sI43
F0.0011635280468008133
sI45
F0.0011618627490232356
sI48
F0.0010884285920488468
sI49
F0.0007503374897366796
sI53
F0.0011991703252644626
sI55
F0.0011453353934633291
sI57
F0.00081334608088690086
sI58
F0.0014213327938790185
sI61
F0.00098469603204650192
sI63
F0.00099067296637467251
sI69
F0.00090228587608176438
sI72
F0.0013443193277288155
sI73
F0.00073313253461784874
sI74
F0.0010383709777686742
sI79
F0.0007929353030959028
sI82
F0.00085726905486482765
sI83
F0.0011376590167909983
sI86
F0.00058935227462491647
sI88
F0.0016978134131613773
sI89
F0.00075725601509490145
sa(dp14
I2
F0.86186084801828478
sI5
F0.78786835889630458
sI6
F0.78016172021589159
sI7
F0.7818204281121589
sI9
F0.81395912483963717
sI11
F0.87137259485624619
sI12
F0.90711379797618918
sI14
F0.99173881746087678
sI16
F1.090329482992769
sI20
F1.2648488000437204
sI25
F1.3482294406066819
sI26
F1.3337953206643771
sI27
F1.3115172372340318
sI28
F1.2847659338008985
sI29
F1.2563459500076701
sI32
F1.181277101208448
sI36
F1.0914238509855825
sI37
F1.0714112196987222
sI38
F1.0553390855387246
sI39
F1.041583809508168
sI40
F1.0306297481779791
sI43
F1.0128693339468313
sI45
F1.0022731824723212
sI48
F0.98227493228715412
sI49
F0.9745363561659417
sI53
F0.93751157973217736
sI55
F0.92265467279860713
sI57
F0.90801118221925559
sI58
F0.89704537412775476
sI61
F0.86560673785913234
sI63
F0.84770330460415844
sI69
F0.8211809770109989
sI72
F0.81550764102370266
sI73
F0.81413789097799316
sI74
F0.81501865556225972
sI79
F0.86722011576234093
sI82
F0.95101129608172219
sI83
F0.98767710751138993
sI86
F1.1187074551153191
sI88
F1.2386098509208179
sI89
F1.3122751178307346
sasI3
(lp15
(dp16
I2
F0.20944257572133568
sI5
F0.15837694092863663
sI6
F0.15742042874724746
sI7
F0.16443878551296701
sI9
F0.2033807348235864
sI11
F0.27700620636512657
sI12
F0.33014882746975321
sI14
F0.48583513047040305
sI16
F0.71673384401278661
sI20
F1.2996788535544177
sI25
F1.6329346559594331
sI26
F1.559586679025637
sI27
F1.4604859811185689
sI28
F1.3526455794882932
sI29
F1.250545964010835
sI32
F1.0079377919888919
sI36
F0.76431251839179515
sI37
F0.72121636401194744
sI38
F0.68791851180714403
sI39
F0.66214269509260582
sI40
F0.64674478315362183
sI43
F0.62071726773287228
sI45
F0.60424104509088061
sI48
F0.57182984691194749
sI49
F0.55688960020381617
sI53
F0.49606013688338452
sI55
F0.47471890409041556
sI57
F0.44946546301984752
sI58
F0.43244336458448113
sI61
F0.38518233639378163
sI63
F0.3627555222467021
sI69
F0.34223793018953258
sI72
F0.34216705944655451
sI73
F0.34485864622244594
sI74
F0.35213003481413624
sI79
F0.4920687716597279
sI82
F0.74943849259847251
sI83
F0.88265501464511842
sI86
F1.5095316301882684
sI88
F2.368353404983778
sI89
F3.1376433222785716
sa(dp17
I2
F0.00078391672685535917
sI5
F0.00071802308428556847
sI6
F0.00094129968462343535
sI7
F0.0012349518073964442
sI9
F0.0011885084295892806
sI11
F0.0008406416370040651
sI12
F0.0011837119306634706
sI14
F0.00097088046809416448
sI16
F0.001877672820942957
sI20
F0.0031558671936990925
sI25
F0.00072140813608778545
sI26
F0.0011558550265894517
sI27
F0.001618954713652004
sI28
F0.0010523810312075639
sI29
F0.00086742662731537036
sI32
F0.0024907627166398227
sI36
F0.0010826872702780924
sI37
F0.0016127719699393719
sI38
F0.0015246901547584782
sI39
F0.0019172791873065997
sI40
F0.00064743267558123731
sI43
F0.0016130286525813393
sI45
F0.0016083809116023266
sI48
F0.0014750634515625805
sI49
F0.000950864103764105
sI53
F0.001829327985209597
sI55
F0.0016027689018650658
sI57
F0.001021232602304175
sI58
F0.0021920179148371419
sI61
F0.0013016418997687385
sI63
F0.001325669117423925
sI69
F0.0011677540980614613
sI72
F0.0021899061073611952
sI73
F0.0010586940537297427
sI74
F0.0015005398666249445
sI79
F0.0010099398791290452
sI82
F0.0011409292035128714
sI83
F0.00169947642048321
sI86
F0.00072232090526504504
sI88
F0.0027974669550455671
sI89
F0.0010623118035272868
sa(dp18
I2
F0.83174016486085978
sI5
F0.78016172021589159
sI6
F0.7818204281121589
sI7
F0.7936446023042566
sI9
F0.83989719112503458
sI11
F0.90711379797618918
sI12
F0.94686739634147976
sI14
F1.0408703547336409
sI16
F1.1392744263165238
sI20
F1.2981189587774713
sI25
F1.3337953206643771
sI26
F1.3115172372340318
sI27
F1.2847659338008985
sI28
F1.2563459500076701
sI29
F1.2296310029568549
sI32
F1.1579357434812843
sI36
F1.0714112196987222
sI37
F1.0553390855387246
sI38
F1.041583809508168
sI39
F1.0306297481779791
sI40
F1.0246824034985145
sI43
F1.0074844008505253
sI45
F0.99536392726600931
sI48
F0.9745363561659417
sI49
F0.96493455506597936
sI53
F0.92953712760501439
sI55
F0.91557487577911467
sI57
F0.89704537412775476
sI58
F0.88660568166466547
sI61
F0.85539663241615504
sI63
F0.83998782767808833
sI69
F0.81964157594999976
sI72
F0.81413789097799316
sI73
F0.81501865556225972
sI74
F0.81897002113872441
sI79
F0.88956556150867838
sI82
F0.98767710751138993
sI83
F1.0274513398939358
sI86
F1.1704034374621732
sI88
F1.3122751178307346
sI89
F1.4192769000166185
sasI4
(lp19
(dp20
I2
F0.17142092577070342
sI5
F0.11892044070132003
sI6
F0.11718512416067356
sI7
F0.1228156235620142
sI9
F0.15852038467701937
sI11
F0.23168365560042273
sI12
F0.28779800268227296
sI14
F0.46411986010763334
sI16
F0.75454683946513756
sI20
F1.594759576242557
sI25
F2.148373034176926
sI26
F2.0322928765797288
sI27
F1.8735669944911424
sI28
F1.7018286861692777
sI29
F1.5403748748139792
sI32
F1.1714684352696962
sI36
F0.82459848652308065
sI37
F0.76472886809733998
sI38
F0.71931991094262837
sI39
F0.68414152603435763
sI40
F0.66197648372446882
sI43
F0.62657501488567935
sI45
F0.60496942696375966
sI48
F0.5630564298960542
sI49
F0.54465770962635629
sI53
F0.46890267624847171
sI55
F0.44264291264786487
sI57
F0.41339988334927968
sI58
F0.39339478532584854
sI61
F0.33929445373726747
sI63
F0.31365311102855431
sI69
F0.28864118505202085
sI72
F0.28757679429379274
sI73
F0.28968429893953945
sI74
F0.29645207711905741
sI79
F0.44332807755790676
sI82
F0.74298566168159408
sI83
F0.90983042979173423
sI86
F1.7684747037492226
sI88
F3.0790042663760255
sI89
F4.3266515036611013
sa(dp21
I2
F0.0011032231691710547
sI5
F0.00095818086958704841
sI6
F0.0012136905336102575
sI7
F0.0014727558869585633
sI9
F0.0014954202213415253
sI11
F0.0011755017388369411
sI12
F0.0016313169525100238
sI14
F0.001400021665972968
sI16
F0.0027982070944678975
sI20
F0.0048645869222605229
sI25
F0.00096481160830977656
sI26
F0.001672227690004773
sI27
F0.0026842255319495076
sI28
F0.0015131336867421155
sI29
F0.0011874515415071748
sI32
F0.0037450513049684612
sI36
F0.0015530108047844956
sI37
F0.0024330099587907823
sI38
F0.0022924226614746534
sI39
F0.0033515642300107891
sI40
F0.00081903466150564492
sI43
F0.0023056932643674604
sI45
F0.0022765879563553968
sI48
F0.0020899802076348351
sI49
F0.0013782344519024067
sI53
F0.0031534025029566664
sI55
F0.0020741055891386078
sI57
F0.0014490136997643273
sI58
F0.0038952857525337537
sI61
F0.0016835462692725317
sI63
F0.0016665470687292168
sI69
F0.0014838371013007412
sI72
F0.0037706199167359816
sI73
F0.0014905959508197616
sI74
F0.0023504678506236949
sI79
F0.001379737504548587
sI82
F0.0016314803246588231
sI83
F0.0028358157922954365
sI86
F0.00096377830147428075
sI88
F0.0043676471228450515
sI89
F0.0015097006448117761
sa(dp22
I2
F0.86186084801828478
sI5
F0.78786835889630458
sI6
F0.78016172021589159
sI7
F0.7818204281121589
sI9
F0.81395912483963717
sI11
F0.87137259485624619
sI12
F0.90711379797618918
sI14
F0.99173881746087678
sI16
F1.090329482992769
sI20
F1.2648488000437204
sI25
F1.3482294406066819
sI26
F1.3337953206643771
sI27
F1.3115172372340318
sI28
F1.2847659338008985
sI29
F1.2563459500076701
sI32
F1.181277101208448
sI36
F1.0914238509855825
sI37
F1.0714112196987222
sI38
F1.0553390855387246
sI39
F1.041583809508168
sI40
F1.0306297481779791
sI43
F1.0128693339468313
sI45
F1.0022731824723212
sI48
F0.98227493228715412
sI49
F0.9745363561659417
sI53
F0.93751157973217736
sI55
F0.92265467279860713
sI57
F0.90801118221925559
sI58
F0.89704537412775476
sI61
F0.86560673785913234
sI63
F0.84770330460415844
sI69
F0.8211809770109989
sI72
F0.81550764102370266
sI73
F0.81413789097799316
sI74
F0.81501865556225972
sI79
F0.86722011576234093
sI82
F0.95101129608172219
sI83
F0.98767710751138993
sI86
F1.1187074551153191
sI88
F1.2386098509208179
sI89
F1.3122751178307346
sasI5
(lp23
(dp24
I2
F0.27943886285540259
sI5
F0.18781499047441094
sI6
F0.18313356062035466
sI7
F0.18992108182768369
sI9
F0.24002697186582897
sI11
F0.34350671957458129
sI12
F0.42224415287312661
sI14
F0.66678406987032057
sI16
F1.0615243597091186
sI20
F2.1515172118586494
sI25
F2.7508682958519337
sI26
F2.5752273383984785
sI27
F2.3494707022272188
sI28
F2.1119835239704123
sI29
F1.8918092362379075
sI32
F1.3945184873557797
sI36
F0.94165691631294735
sI37
F0.86427632335369842
sI38
F0.8045712505301098
sI39
F0.7573349672649109
sI40
F0.72524806377807205
sI43
F0.66548294291554411
sI45
F0.6293933149005585
sI48
F0.56793060663331696
sI49
F0.54373821231097208
sI53
F0.44922446906015923
sI55
F0.41543711168389758
sI57
F0.38010397620691855
sI58
F0.35801749791940107
sI61
F0.29943113551736572
sI63
F0.27119246208083797
sI69
F0.23472783872449782
sI72
F0.22681931753222251
sI73
F0.22616687791104625
sI74
F0.22910715803088216
sI79
F0.32564465326777592
sI82
F0.52940373629435555
sI83
F0.64175238147615765
sI86
F1.2100986432651835
sI88
F2.0646829792825581
sI89
F2.8721621272118161
sa(dp25
I2
F0.0018252157874780544
sI5
F0.001528555228426148
sI6
F0.0015105937956568919
sI7
F0.001532962307306634
sI9
F0.0016968146155484469
sI11
F0.0019969201448482576
sI12
F0.0022009733208382841
sI14
F0.0027545154698035397
sI16
F0.0035038601991423494
sI20
F0.0051636796742805836
sI25
F0.0059280899076901228
sI26
F0.0057015111867411835
sI27
F0.0054053079558906737
sI28
F0.0050846290355784206
sI29
F0.0047772049598843059
sI32
F0.0040328839481625391
sI36
F0.0032676145472324671
sI37
F0.0031245303789710754
sI38
F0.0030106509301379967
sI39
F0.0029181829501591246
sI40
F0.0028539532189663006
sI43
F0.002730476466192149
sI45
F0.0026538579303451455
sI48
F0.0025199005728569314
sI49
F0.0024658747169740355
sI53
F0.0022452009435541018
sI55
F0.0021617165251113183
sI57
F0.0020718713635029858
sI58
F0.0020140175094222157
sI61
F0.001853065097154973
sI63
F0.00177047848278155
sI69
F0.0016566284347770341
sI72
F0.0016304195502530687
sI73
F0.0016277099081366006
sI74
F0.001636313281711588
sI79
F0.0019147554029599468
sI82
F0.0024124080090778743
sI83
F0.0026540144701190059
sI86
F0.0036914451109860118
sI88
F0.004965688115209985
sI89
F0.0060195159167684966
sa(dp26
I2
I1
sI5
I1
sI6
I1
sI7
I1
sI9
I1
sI11
I1
sI12
I1
sI14
I1
sI16
I1
sI20
I1
sI25
I1
sI26
I1
sI27
I1
sI28
I1
sI29
I1
sI32
I1
sI36
I1
sI37
I1
sI38
I1
sI39
I1
sI40
I1
sI43
I1
sI45
I1
sI48
I1
sI49
I1
sI53
I1
sI55
I1
sI57
I1
sI58
I1
sI61
I1
sI63
I1
sI69
I1
sI72
I1
sI73
I1
sI74
I1
sI79
I1
sI82
I1
sI83
I1
sI86
I1
sI88
I1
sI89
I1
sassI2
(dp27
I0
(lp28
(dp29
a(dp30
a(dp31
asI1
(lp32
(dp33
a(dp34
a(dp35
asI2
(lp36
(dp37
a(dp38
a(dp39
asI3
(lp40
(dp41
a(dp42
a(dp43
asI4
(lp44
(dp45
a(dp46
a(dp47
asI5
(lp48
(dp49
a(dp50
a(dp51
assI3
(dp52
I0
(lp53
(dp54
a(dp55
a(dp56
asI1
(lp57
(dp58
a(dp59
a(dp60
asI2
(lp61
(dp62
a(dp63
a(dp64
asI3
(lp65
(dp66
a(dp67
a(dp68
asI4
(lp69
(dp70
a(dp71
a(dp72
asI5
(lp73
(dp74
a(dp75
a(dp76
assI4
(dp77
I0
(lp78
(dp79
a(dp80
a(dp81
asI1
(lp82
(dp83
a(dp84
a(dp85
asI2
(lp86
(dp87
a(dp88
a(dp89
asI3
(lp90
(dp91
a(dp92
a(dp93
asI4
(lp94
(dp95
a(dp96
a(dp97
asI5
(lp98
(dp99
a(dp100
a(dp101
assI5
(dp102
I0
(lp103
(dp104
a(dp105
a(dp106
asI1
(lp107
(dp108
a(dp109
a(dp110
asI2
(lp111
(dp112
a(dp113
a(dp114
asI3
(lp115
(dp116
a(dp117
a(dp118
asI4
(lp119
(dp120
a(dp121
a(dp122
asI5
(lp123
(dp124
a(dp125
a(dp126
assI6
(dp127
I0
(lp128
(dp129
a(dp130
a(dp131
asI1
(lp132
(dp133
a(dp134
a(dp135
asI2
(lp136
(dp137
a(dp138
a(dp139
asI3
(lp140
(dp141
a(dp142
a(dp143
asI4
(lp144
(dp145
a(dp146
a(dp147
asI5
(lp148
(dp149
a(dp150
a(dp151
assI7
(dp152
I0
(lp153
(dp154
a(dp155
a(dp156
asI1
(lp157
(dp158
a(dp159
a(dp160
asI2
(lp161
(dp162
a(dp163
a(dp164
asI3
(lp165
(dp166
a(dp167
a(dp168
asI4
(lp169
(dp170
a(dp171
a(dp172
asI5
(lp173
(dp174
a(dp175
a(dp176
assI8
(dp177
I0
(lp178
(dp179
a(dp180
a(dp181
asI1
(lp182
(dp183
a(dp184
a(dp185
asI2
(lp186
(dp187
a(dp188
a(dp189
asI3
(lp190
(dp191
a(dp192
a(dp193
asI4
(lp194
(dp195
a(dp196
a(dp197
asI5
(lp198
(dp199
a(dp200
a(dp201
ass.