(dp1
I0
F0.33265911751992677
sI1
F0.34003125268110268
sI2
F0.34756277997032764
sI3
F0.35525705848931283
sI4
F0.36311751627331257
sI5
F0.3711476516671593
sI6
F0.37935103472792137
sI7
F0.38773130865477051
sI8
F0.39629219124659598
sI9
F0.40503747638774457
sI10
F0.41397103556259285
sI11
F0.4230968193993721
sI12
F0.43241885924383827
sI13
F0.44194126876331546
sI14
F0.45166824558177132
sI15
F0.46160407294635941
sI16
F0.47175312142616999
sI17
F0.48211985064366059
sI18
F0.49270881103950659
sI19
F0.50352464567136579
sI20
F0.51457209204726151
sI21
F0.52585598399427746
sI22
F0.53738125356307087
sI23
F0.54915293296908596
sI24
F0.56117615657089814
sI25
F0.5734561628866609
sI26
F0.58599829664908065
sI27
F0.59880801089989177
sI28
F0.61189086912434631
sI29
F0.62525254742666236
sI30
F0.63889883674702663
sI31
F0.65283564512101222
sI32
F0.66706899998216751
sI33
F0.68160505050863962
sI34
F0.69645007001446824
sI35
F0.71161045838665604
sI36
F0.72709274456859063
sI37
F0.74290358909086007
sI38
F0.75904978665025236
sI39
F0.77553826873784115
sI40
F0.7923761063170689
sI41
F0.80957051255280688
sI42
F0.82712884559217381
sI43
F0.84505861139826444
sI44
F0.86336746663765263
sI45
F0.88206322162264139
sI46
F0.90115384330930259
sI47
F0.92064745835244877
sI48
F0.9405523562182303
sI49
F0.96087699235590496
sI50
F0.98162999142944329
sI51
F1.0028201506103671
sI52
F1.0244564429326453
sI53
F1.0465480207111362
sI54
F1.0691042190245172
sI55
F1.0921345592637461
sI56
F1.1156487527477197
sI57
F1.1396567044068369
sI58
F1.1641685165360465
sI59
F1.1891944926185551
sI60
F1.214745141221415
sI61
F1.240831179964373
sI62
F1.2674635395633724
sI63
F1.2946533679498671
sI64
F1.32241203446763
sI65
F1.3507511341481457
sI66
F1.379682492066276
sI67
F1.4092181677774944
sI68
F1.4393704598382353
sI69
F1.4701519104109304
sI70
F1.5015753099550748
sI71
F1.5336537020060983
sI72
F1.5664003880435708
sI73
F1.5998289324502344
sI74
F1.6339531675636867
sI75
F1.6687871988222498
sI76
F1.7043454100069717
sI77
F1.7406424685810074
sI78
F1.7776933311287169
sI79
F1.8155132488959054
sI80
F1.8541177734331378
sI81
F1.8935227623440649
sI82
F1.9337443851404816
sI83
F1.9747991292062135
sI84
F2.0167038058716389
sI85
F2.0594755566009932
sI86
F2.1031318592943826
sI87
F2.1476905347066224
sI88
F2.1931697529847964
sI89
F2.2395880403271624
s.